; Function Attrs: mustprogress uwtable
define hidden void @_ZN12mpbq_manager12refine_upperERK3mpqR4mpbqS4_(ptr noundef nonnull align 8 dereferenceable(208) %0, ptr noundef nonnull align 8 dereferenceable(32) %1, ptr noundef nonnull align 8 dereferenceable(20) %2, ptr noundef nonnull align 8 dereferenceable(20) %3) local_unnamed_addr #3 align 2 {
  %5 = alloca %class.mpbq, align 8
  call void @llvm.lifetime.start.p0(i64 24, ptr nonnull %5) #18
  store i32 0, ptr %5, align 8, !tbaa !3
  %6 = getelementptr inbounds nuw i8, ptr %5, i64 4
  store i8 0, ptr %6, align 4
  %7 = getelementptr inbounds nuw i8, ptr %5, i64 8
  store ptr null, ptr %7, align 8, !tbaa !10
  %8 = getelementptr inbounds nuw i8, ptr %5, i64 16
  store i32 0, ptr %8, align 8, !tbaa !13
  %9 = getelementptr inbounds nuw i8, ptr %2, i64 8
  %10 = getelementptr inbounds nuw i8, ptr %2, i64 4
  %11 = getelementptr inbounds nuw i8, ptr %2, i64 16
  br label %12

12:                                               ; preds = %46, %4
  call void @_ZN12mpbq_manager3addERK4mpbqS2_RS0_(ptr noundef nonnull align 8 dereferenceable(208) %0, ptr noundef nonnull align 8 dereferenceable(20) %2, ptr noundef nonnull align 8 dereferenceable(20) %3, ptr noundef nonnull align 8 dereferenceable(20) %5)
  %13 = load i32, ptr %8, align 8, !tbaa !13
  %14 = icmp eq i32 %13, 0
  %15 = add i32 %13, 1
  store i32 %15, ptr %8, align 8, !tbaa !13
  br i1 %14, label %16, label %_ZN12mpbq_manager4div2ER4mpbq.exit

16:                                               ; preds = %12
  %17 = load i32, ptr %5, align 8, !tbaa !3
  %18 = icmp eq i32 %17, 0
  br i1 %18, label %_ZN12mpbq_manager9normalizeER4mpbq.exit.i, label %19

19:                                               ; preds = %16
  %20 = load ptr, ptr %0, align 8, !tbaa !26
  %21 = call noundef i32 @_ZN11mpz_managerILb0EE21power_of_two_multipleERK3mpz(ptr noundef nonnull align 8 dereferenceable(600) %20, ptr noundef nonnull align 8 dereferenceable(20) %5)
  %22 = load i32, ptr %8, align 8, !tbaa !13
  %spec.select.i.i = call i32 @llvm.umin.i32(i32 %21, i32 %22)
  %23 = load ptr, ptr %0, align 8, !tbaa !26
  call void @_ZN11mpz_managerILb0EE13machine_div2kER3mpzj(ptr noundef nonnull align 8 dereferenceable(600) %23, ptr noundef nonnull align 8 dereferenceable(20) %5, i32 noundef %spec.select.i.i)
  %24 = load i32, ptr %8, align 8, !tbaa !13
  %25 = sub i32 %24, %spec.select.i.i
  br label %_ZN12mpbq_manager9normalizeER4mpbq.exit.i

_ZN12mpbq_manager9normalizeER4mpbq.exit.i:        ; preds = %19, %16
  %.sink.i.i = phi i32 [ %25, %19 ], [ 0, %16 ]
  store i32 %.sink.i.i, ptr %8, align 8, !tbaa !13
  br label %_ZN12mpbq_manager4div2ER4mpbq.exit

_ZN12mpbq_manager4div2ER4mpbq.exit:               ; preds = %12, %_ZN12mpbq_manager9normalizeER4mpbq.exit.i
  %26 = call noundef zeroext i1 @_ZN12mpbq_manager2leERK4mpbqRK3mpq(ptr noundef nonnull align 8 dereferenceable(208) %0, ptr noundef nonnull align 8 dereferenceable(20) %5, ptr noundef nonnull align 8 dereferenceable(32) %1)
  %27 = load i32, ptr %5, align 8, !tbaa !22
  br i1 %26, label %46, label %28

28:                                               ; preds = %_ZN12mpbq_manager4div2ER4mpbq.exit
  %29 = load i32, ptr %3, align 8, !tbaa !22
  store i32 %27, ptr %3, align 8, !tbaa !22
  store i32 %29, ptr %5, align 8, !tbaa !22
  %30 = getelementptr inbounds nuw i8, ptr %3, i64 8
  %31 = load ptr, ptr %30, align 8, !tbaa !23
  %32 = load ptr, ptr %7, align 8, !tbaa !23
  store ptr %32, ptr %30, align 8, !tbaa !23
  store ptr %31, ptr %7, align 8, !tbaa !23
  %33 = getelementptr inbounds nuw i8, ptr %3, i64 4
  %34 = load i8, ptr %33, align 4
  %35 = load i8, ptr %6, align 4
  %36 = and i8 %34, -4
  %37 = and i8 %35, -4
  %38 = and i8 %35, 3
  %39 = or disjoint i8 %38, %36
  store i8 %39, ptr %33, align 4
  %40 = and i8 %34, 3
  %41 = or disjoint i8 %37, %40
  store i8 %41, ptr %6, align 4
  %42 = getelementptr inbounds nuw i8, ptr %3, i64 16
  %43 = load i32, ptr %42, align 8, !tbaa !22
  %44 = load i32, ptr %8, align 8, !tbaa !22
  store i32 %44, ptr %42, align 8, !tbaa !22
  store i32 %43, ptr %8, align 8, !tbaa !22
  %45 = load ptr, ptr %0, align 8, !tbaa !26
  call void @_ZN11mpz_managerILb0EE3delEPS0_R3mpz(ptr noundef nonnull align 8 dereferenceable(600) %45, ptr noundef nonnull align 8 dereferenceable(20) %5)
  call void @llvm.lifetime.end.p0(i64 24, ptr nonnull %5) #18
  ret void

46:                                               ; preds = %_ZN12mpbq_manager4div2ER4mpbq.exit
  %47 = load i32, ptr %2, align 8, !tbaa !22
  store i32 %27, ptr %2, align 8, !tbaa !22
  store i32 %47, ptr %5, align 8, !tbaa !22
  %48 = load ptr, ptr %9, align 8, !tbaa !23
  %49 = load ptr, ptr %7, align 8, !tbaa !23
  store ptr %49, ptr %9, align 8, !tbaa !23
  store ptr %48, ptr %7, align 8, !tbaa !23
  %50 = load i8, ptr %10, align 4
  %51 = load i8, ptr %6, align 4
  %52 = and i8 %50, -4
  %53 = and i8 %51, -4
  %54 = and i8 %51, 3
  %55 = or disjoint i8 %54, %52
  store i8 %55, ptr %10, align 4
  %56 = and i8 %50, 3
  %57 = or disjoint i8 %53, %56
  store i8 %57, ptr %6, align 4
  %58 = load i32, ptr %11, align 8, !tbaa !22
  %59 = load i32, ptr %8, align 8, !tbaa !22
  store i32 %59, ptr %11, align 8, !tbaa !22
  store i32 %58, ptr %8, align 8, !tbaa !22
  br label %12, !llvm.loop !56
}